target datalayout = "e-m:e-p270:32:32-p271:32:32-p272:64:64-i64:64-i128:128-f80:128-n8:16:32:64-S128"
target triple = "x86_64-pc-linux-gnu"

%"class.cv::ParallelLoopBody" = type { ptr }
%"class.cv::TermCriteria" = type { i32, i32, double }
%"class.cv::Size_" = type { i32, i32 }
%"struct.cv::detail::LKTrackerInvoker" = type { %"class.cv::ParallelLoopBody", ptr, ptr, ptr, ptr, ptr, ptr, ptr, %"class.cv::Size_", %"class.cv::TermCriteria", i32, i32, i32, float }

@_ZTVN2cv6detail16LKTrackerInvokerE = hidden unnamed_addr constant { [5 x ptr] } { [5 x ptr] [ptr null, ptr @_ZTIN2cv6detail16LKTrackerInvokerE, ptr @_ZN2cv16ParallelLoopBodyD2Ev, ptr @_ZN2cv6detail16LKTrackerInvokerD0Ev, ptr @_ZNK2cv6detail16LKTrackerInvokerclERKNS_5RangeE] }, align 8
@_ZTVN2cv16ParallelLoopBodyE = available_externally unnamed_addr constant { [5 x ptr] } { [5 x ptr] [ptr null, ptr @_ZTIN2cv16ParallelLoopBodyE, ptr @_ZN2cv16ParallelLoopBodyD1Ev, ptr @_ZN2cv16ParallelLoopBodyD0Ev, ptr @__cxa_pure_virtual] }, align 8

; Function Attrs: inlinehint mustprogress nounwind uwtable
define linkonce_odr hidden void @_ZN2cv12TermCriteriaC2Ev(ptr noundef nonnull align 8 dereferenceable(16) %0) unnamed_addr #6 comdat align 2 {
  %2 = alloca ptr, align 8
  store ptr %0, ptr %2, align 8, !tbaa !86
  %3 = load ptr, ptr %2, align 8
  %4 = getelementptr inbounds nuw %"class.cv::TermCriteria", ptr %3, i32 0, i32 0
  store i32 0, ptr %4, align 8, !tbaa !88
  %5 = getelementptr inbounds nuw %"class.cv::TermCriteria", ptr %3, i32 0, i32 1
  store i32 0, ptr %5, align 4, !tbaa !89
  %6 = getelementptr inbounds nuw %"class.cv::TermCriteria", ptr %3, i32 0, i32 2
  store double 0.000000e+00, ptr %6, align 8, !tbaa !90
  ret void
}

; Function Attrs: inlinehint mustprogress nounwind uwtable
define linkonce_odr hidden void @_ZN2cv5Size_IiEC2Ev(ptr noundef nonnull align 4 dereferenceable(8) %0) unnamed_addr #6 comdat align 2 {
  %2 = alloca ptr, align 8
  store ptr %0, ptr %2, align 8, !tbaa !82
  %3 = load ptr, ptr %2, align 8
  %4 = getelementptr inbounds nuw %"class.cv::Size_", ptr %3, i32 0, i32 0
  store i32 0, ptr %4, align 4, !tbaa !84
  %5 = getelementptr inbounds nuw %"class.cv::Size_", ptr %3, i32 0, i32 1
  store i32 0, ptr %5, align 4, !tbaa !85
  ret void
}

; Function Attrs: inlinehint mustprogress nounwind uwtable
define linkonce_odr hidden void @_ZN2cv16ParallelLoopBodyC2Ev(ptr noundef nonnull align 8 dereferenceable(8) %0) unnamed_addr #6 comdat align 2 {
  %2 = alloca ptr, align 8
  store ptr %0, ptr %2, align 8, !tbaa !80
  %3 = load ptr, ptr %2, align 8
  store ptr getelementptr inbounds inrange(-16, 24) ({ [5 x ptr] }, ptr @_ZTVN2cv16ParallelLoopBodyE, i32 0, i32 0, i32 2), ptr %3, align 8, !tbaa !60
  ret void
}

; Function Attrs: mustprogress uwtable
define hidden void @_ZN2cv6detail16LKTrackerInvokerC2ERKNS_3MatES4_S4_PKNS_6Point_IfEEPS6_PhPfNS_5Size_IiEENS_12TermCriteriaEiiif(ptr noundef nonnull align 8 dereferenceable(104) %0, ptr noundef nonnull align 8 dereferenceable(96) %1, ptr noundef nonnull align 8 dereferenceable(96) %2, ptr noundef nonnull align 8 dereferenceable(96) %3, ptr noundef %4, ptr noundef %5, ptr noundef %6, ptr noundef %7, i64 %8, ptr noundef byval(%"class.cv::TermCriteria") align 8 %9, i32 noundef %10, i32 noundef %11, i32 noundef %12, float noundef %13) unnamed_addr #4 align 2 personality ptr @__gxx_personality_v0 {
  %15 = alloca %"class.cv::Size_", align 4
  %16 = alloca ptr, align 8
  %17 = alloca ptr, align 8
  %18 = alloca ptr, align 8
  %19 = alloca ptr, align 8
  %20 = alloca ptr, align 8
  %21 = alloca ptr, align 8
  %22 = alloca ptr, align 8
  %23 = alloca ptr, align 8
  %24 = alloca i32, align 4
  %25 = alloca i32, align 4
  %26 = alloca i32, align 4
  %27 = alloca float, align 4
  %28 = alloca ptr, align 8
  %29 = alloca i32, align 4
  store i64 %8, ptr %15, align 4
  store ptr %0, ptr %16, align 8, !tbaa !52
  store ptr %1, ptr %17, align 8, !tbaa !41
  store ptr %2, ptr %18, align 8, !tbaa !41
  store ptr %3, ptr %19, align 8, !tbaa !41
  store ptr %4, ptr %20, align 8, !tbaa !54
  store ptr %5, ptr %21, align 8, !tbaa !54
  store ptr %6, ptr %22, align 8, !tbaa !31
  store ptr %7, ptr %23, align 8, !tbaa !56
  store i32 %10, ptr %24, align 4, !tbaa !24
  store i32 %11, ptr %25, align 4, !tbaa !24
  store i32 %12, ptr %26, align 4, !tbaa !24
  store float %13, ptr %27, align 4, !tbaa !58
  %30 = load ptr, ptr %16, align 8
  call void @_ZN2cv16ParallelLoopBodyC2Ev(ptr noundef nonnull align 8 dereferenceable(8) %30) #3
  store ptr getelementptr inbounds inrange(-16, 24) ({ [5 x ptr] }, ptr @_ZTVN2cv6detail16LKTrackerInvokerE, i32 0, i32 0, i32 2), ptr %30, align 8, !tbaa !60
  %31 = getelementptr inbounds nuw %"struct.cv::detail::LKTrackerInvoker", ptr %30, i32 0, i32 8
  invoke void @_ZN2cv5Size_IiEC2Ev(ptr noundef nonnull align 4 dereferenceable(8) %31)
          to label %32 unwind label %59

32:                                               ; preds = %14
  %33 = getelementptr inbounds nuw %"struct.cv::detail::LKTrackerInvoker", ptr %30, i32 0, i32 9
  invoke void @_ZN2cv12TermCriteriaC2Ev(ptr noundef nonnull align 8 dereferenceable(16) %33)
          to label %34 unwind label %59

34:                                               ; preds = %32
  %35 = load ptr, ptr %17, align 8, !tbaa !41
  %36 = getelementptr inbounds nuw %"struct.cv::detail::LKTrackerInvoker", ptr %30, i32 0, i32 1
  store ptr %35, ptr %36, align 8, !tbaa !62
  %37 = load ptr, ptr %18, align 8, !tbaa !41
  %38 = getelementptr inbounds nuw %"struct.cv::detail::LKTrackerInvoker", ptr %30, i32 0, i32 3
  store ptr %37, ptr %38, align 8, !tbaa !67
  %39 = load ptr, ptr %19, align 8, !tbaa !41
  %40 = getelementptr inbounds nuw %"struct.cv::detail::LKTrackerInvoker", ptr %30, i32 0, i32 2
  store ptr %39, ptr %40, align 8, !tbaa !68
  %41 = load ptr, ptr %20, align 8, !tbaa !54
  %42 = getelementptr inbounds nuw %"struct.cv::detail::LKTrackerInvoker", ptr %30, i32 0, i32 4
  store ptr %41, ptr %42, align 8, !tbaa !69
  %43 = load ptr, ptr %21, align 8, !tbaa !54
  %44 = getelementptr inbounds nuw %"struct.cv::detail::LKTrackerInvoker", ptr %30, i32 0, i32 5
  store ptr %43, ptr %44, align 8, !tbaa !70
  %45 = load ptr, ptr %22, align 8, !tbaa !31
  %46 = getelementptr inbounds nuw %"struct.cv::detail::LKTrackerInvoker", ptr %30, i32 0, i32 6
  store ptr %45, ptr %46, align 8, !tbaa !71
  %47 = load ptr, ptr %23, align 8, !tbaa !56
  %48 = getelementptr inbounds nuw %"struct.cv::detail::LKTrackerInvoker", ptr %30, i32 0, i32 7
  store ptr %47, ptr %48, align 8, !tbaa !72
  %49 = getelementptr inbounds nuw %"struct.cv::detail::LKTrackerInvoker", ptr %30, i32 0, i32 8
  call void @llvm.memcpy.p0.p0.i64(ptr align 8 %49, ptr align 4 %15, i64 8, i1 false), !tbaa.struct !73
  %50 = getelementptr inbounds nuw %"struct.cv::detail::LKTrackerInvoker", ptr %30, i32 0, i32 9
  call void @llvm.memcpy.p0.p0.i64(ptr align 8 %50, ptr align 8 %9, i64 16, i1 false), !tbaa.struct !74
  %51 = load i32, ptr %24, align 4, !tbaa !24
  %52 = getelementptr inbounds nuw %"struct.cv::detail::LKTrackerInvoker", ptr %30, i32 0, i32 10
  store i32 %51, ptr %52, align 8, !tbaa !76
  %53 = load i32, ptr %25, align 4, !tbaa !24
  %54 = getelementptr inbounds nuw %"struct.cv::detail::LKTrackerInvoker", ptr %30, i32 0, i32 11
  store i32 %53, ptr %54, align 4, !tbaa !77
  %55 = load i32, ptr %26, align 4, !tbaa !24
  %56 = getelementptr inbounds nuw %"struct.cv::detail::LKTrackerInvoker", ptr %30, i32 0, i32 12
  store i32 %55, ptr %56, align 8, !tbaa !78
  %57 = load float, ptr %27, align 4, !tbaa !58
  %58 = getelementptr inbounds nuw %"struct.cv::detail::LKTrackerInvoker", ptr %30, i32 0, i32 13
  store float %57, ptr %58, align 4, !tbaa !79
  ret void

59:                                               ; preds = %32, %14
  %60 = landingpad { ptr, i32 }
          cleanup
  %61 = extractvalue { ptr, i32 } %60, 0
  store ptr %61, ptr %28, align 8
  %62 = extractvalue { ptr, i32 } %60, 1
  store i32 %62, ptr %29, align 4
  call void @_ZN2cv16ParallelLoopBodyD2Ev(ptr noundef nonnull align 8 dereferenceable(8) %30) #3
  br label %63

63:                                               ; preds = %59
  %64 = load ptr, ptr %28, align 8
  %65 = load i32, ptr %29, align 4
  %66 = insertvalue { ptr, i32 } poison, ptr %64, 0
  %67 = insertvalue { ptr, i32 } %66, i32 %65, 1
  resume { ptr, i32 } %67
}