; Function Attrs: mustprogress nofree norecurse nosync nounwind willreturn memory(argmem: readwrite) uwtable
define hidden void @_ZN2cv6detail16LKTrackerInvokerC2ERKNS_3MatES4_S4_PKNS_6Point_IfEEPS6_PhPfNS_5Size_IiEENS_12TermCriteriaEiiif(ptr noundef nonnull writeonly align 8 captures(none) dereferenceable(104) initializes((0, 104)) %0, ptr noundef nonnull align 8 dereferenceable(96) %1, ptr noundef nonnull align 8 dereferenceable(96) %2, ptr noundef nonnull align 8 dereferenceable(96) %3, ptr noundef %4, ptr noundef %5, ptr noundef %6, ptr noundef %7, i64 %8, ptr noundef readonly byval(%"class.cv::TermCriteria") align 8 captures(none) %9, i32 noundef %10, i32 noundef %11, i32 noundef %12, float noundef %13) unnamed_addr #5 align 2 personality ptr @__gxx_personality_v0 {
  store ptr getelementptr inbounds nuw inrange(-16, 24) (i8, ptr @_ZTVN2cv6detail16LKTrackerInvokerE, i64 16), ptr %0, align 8, !tbaa !42
  %15 = getelementptr inbounds nuw i8, ptr %0, i64 64
  %16 = getelementptr inbounds nuw i8, ptr %0, i64 72
  %17 = getelementptr inbounds nuw i8, ptr %0, i64 8
  store ptr %1, ptr %17, align 8, !tbaa !44
  %18 = getelementptr inbounds nuw i8, ptr %0, i64 24
  store ptr %2, ptr %18, align 8, !tbaa !52
  %19 = getelementptr inbounds nuw i8, ptr %0, i64 16
  store ptr %3, ptr %19, align 8, !tbaa !53
  %20 = getelementptr inbounds nuw i8, ptr %0, i64 32
  store ptr %4, ptr %20, align 8, !tbaa !54
  %21 = getelementptr inbounds nuw i8, ptr %0, i64 40
  store ptr %5, ptr %21, align 8, !tbaa !55
  %22 = getelementptr inbounds nuw i8, ptr %0, i64 48
  store ptr %6, ptr %22, align 8, !tbaa !56
  %23 = getelementptr inbounds nuw i8, ptr %0, i64 56
  store ptr %7, ptr %23, align 8, !tbaa !57
  store i64 %8, ptr %15, align 8
  call void @llvm.memcpy.p0.p0.i64(ptr noundef nonnull align 8 dereferenceable(16) %16, ptr noundef nonnull align 8 dereferenceable(16) %9, i64 16, i1 false), !tbaa.struct !58
  %24 = getelementptr inbounds nuw i8, ptr %0, i64 88
  store i32 %10, ptr %24, align 8, !tbaa !61
  %25 = getelementptr inbounds nuw i8, ptr %0, i64 92
  store i32 %11, ptr %25, align 4, !tbaa !62
  %26 = getelementptr inbounds nuw i8, ptr %0, i64 96
  store i32 %12, ptr %26, align 8, !tbaa !63
  %27 = getelementptr inbounds nuw i8, ptr %0, i64 100
  store float %13, ptr %27, align 4, !tbaa !64
  ret void
}